(dp0
cnumpy.core.multiarray
scalar
p1
(cnumpy
dtype
p2
(S'S6'
p3
I0
I1
tp4
Rp5
(I3
S'|'
p6
NNNI6
I1
I0
tp7
bS'setosa'
p8
tp9
Rp10
ccopy_reg
_reconstructor
p11
(csklearn.linear_model.logistic
LogisticRegression
p12
c__builtin__
object
p13
Ntp14
Rp15
(dp16
S'warm_start'
p17
I00
sS'C'
p18
F1.0
sS'max_iter'
p19
I100
sS'verbose'
p20
I0
sS'intercept_scaling'
p21
I1
sS'dual'
p22
I00
sS'fit_intercept'
p23
I01
sS'classes_'
p24
cnumpy.core.multiarray
_reconstruct
p25
(cnumpy
ndarray
p26
(I0
tp27
S'b'
p28
tp29
Rp30
(I1
(L2L
tp31
g2
(S'b1'
p32
I0
I1
tp33
Rp34
(I3
S'|'
p35
NNNI-1
I-1
I0
tp36
bI00
S'\x00\x01'
p37
tp38
bsS'solver'
p39
S'liblinear'
p40
sS'n_iter_'
p41
g25
(g26
(I0
tp42
g28
tp43
Rp44
(I1
(L1L
tp45
g2
(S'i4'
p46
I0
I1
tp47
Rp48
(I3
S'<'
p49
NNNI-1
I-1
I0
tp50
bI00
S'\x06\x00\x00\x00'
p51
tp52
bsS'penalty'
p53
S'l2'
p54
sS'multi_class'
p55
S'ovr'
p56
sS'random_state'
p57
NsS'tol'
p58
F0.0001
sS'n_jobs'
p59
I1
sS'coef_'
p60
g25
(g26
(I0
tp61
g28
tp62
Rp63
(I1
(L1L
L4L
tp64
g2
(S'f8'
p65
I0
I1
tp66
Rp67
(I3
S'<'
p68
NNNI-1
I-1
I0
tp69
bI01
S'\x0b\xe4?\xce91\xd6?\xfd\x15\xb7\x81Z"\xf6?t\x86\xbeS\x0e\x8d\x00\xc0\xd9X\xaaS\xca\x11\xef\xbf'
p70
tp71
bsS'intercept_'
p72
g25
(g26
(I0
tp73
g28
tp74
Rp75
(I1
(L1L
tp76
g67
I00
S'{\x86b\x12\x8e\x9c\xcc?'
p77
tp78
bsS'class_weight'
p79
Nsbsg1
(g2
(S'S10'
p80
I0
I1
tp81
Rp82
(I3
S'|'
p83
NNNI10
I1
I0
tp84
bS'versicolor'
p85
tp86
Rp87
g11
(g12
g13
Ntp88
Rp89
(dp90
g17
I00
sg18
F1.0
sg19
I100
sg20
I0
sg21
I1
sg22
I00
sg23
I01
sg24
g25
(g26
(I0
tp91
g28
tp92
Rp93
(I1
(L2L
tp94
g34
I00
S'\x00\x01'
p95
tp96
bsg39
g40
sg41
g25
(g26
(I0
tp97
g28
tp98
Rp99
(I1
(L1L
tp100
g48
I00
S'\x07\x00\x00\x00'
p101
tp102
bsg53
g54
sg55
g56
sg57
Nsg58
F0.0001
sg59
I1
sg60
g25
(g26
(I0
tp103
g28
tp104
Rp105
(I1
(L1L
L4L
tp106
g67
I01
S'\x96\x9c\xbeO\r\xe0\xe7?\xc1\x15\x96=\xf2S\xfd\xbf\xec\xc8\x14G\x96{\xbf?\x8dt%\xber~\xe7\xbf'
p107
tp108
bsg72
g25
(g26
(I0
tp109
g28
tp110
Rp111
(I1
(L1L
tp112
g67
I00
S'\x8fd\x1cq\xcb\xf0\xe7?'
p113
tp114
bsg79
Nsbsg1
(g2
(S'S9'
p115
I0
I1
tp116
Rp117
(I3
S'|'
p118
NNNI9
I1
I0
tp119
bS'virginica'
p120
tp121
Rp122
g11
(g12
g13
Ntp123
Rp124
(dp125
g17
I00
sg18
F1.0
sg19
I100
sg20
I0
sg21
I1
sg22
I00
sg23
I01
sg24
g25
(g26
(I0
tp126
g28
tp127
Rp128
(I1
(L2L
tp129
g34
I00
S'\x00\x01'
p130
tp131
bsg39
g40
sg41
g25
(g26
(I0
tp132
g28
tp133
Rp134
(I1
(L1L
tp135
g48
I00
S'\x06\x00\x00\x00'
p136
tp137
bsg53
g54
sg55
g56
sg57
Nsg58
F0.0001
sg59
I1
sg60
g25
(g26
(I0
tp138
g28
tp139
Rp140
(I1
(L1L
L4L
tp141
g67
I01
S'\n\x94z\xf3\xb4r\xf9\xbf\x91\x9fL[D\xe1\xf2\xbfz\xa6"\xcd\xfa\x1c\x02@|\x1b\x8d\xf1\xe1\xb5\xff?'
p142
tp143
bsg72
g25
(g26
(I0
tp144
g28
tp145
Rp146
(I1
(L1L
tp147
g67
I00
S'\x7ft@\xe6\x18,\xec\xbf'
p148
tp149
bsg79
Nsbs.